; Function Attrs: nounwind uwtable
define range(i32 -2147483648, 2) i32 @bwrite_conv(ptr noundef %0, ptr noundef %1, i64 noundef %2, ptr noundef writeonly captures(none) initializes((0, 8)) %3) #0 {
  %spec.store.select = tail call i64 @llvm.umin.i64(i64 %2, i64 2147483647)
  %5 = getelementptr inbounds nuw i8, ptr %0, i64 8
  %6 = load ptr, ptr %5, align 8, !tbaa !15
  %7 = getelementptr inbounds nuw i8, ptr %6, i64 24
  %8 = load ptr, ptr %7, align 8, !tbaa !13
  %9 = trunc nuw nsw i64 %spec.store.select to i32
  %10 = tail call i32 %8(ptr noundef %0, ptr noundef %1, i32 noundef %9) #6
  %narrow = tail call i32 @llvm.smax.i32(i32 %10, i32 0)
  %storemerge = zext nneg i32 %narrow to i64
  %.0 = tail call i32 @llvm.smin.i32(i32 %10, i32 1)
  store i64 %storemerge, ptr %3, align 8, !tbaa !23
  ret i32 %.0
}